; ModuleID = 'source-C-CXX/27/276.c'
source_filename = "source-C-CXX/27/276.c"
target datalayout = "e-m:e-p270:32:32-p271:32:32-p272:64:64-i64:64-f80:128-n8:16:32:64-S128"
target triple = "x86_64-pc-linux-gnu"

@.str = private unnamed_addr constant [4 x i8] c"%d,\00", align 1
@.str.1 = private unnamed_addr constant [3 x i8] c"%d\00", align 1

; Function Attrs: nounwind sspstrong uwtable
define dso_local i32 @main() local_unnamed_addr #0 {
  %1 = alloca [2100 x i8], align 16
  %2 = getelementptr inbounds [2100 x i8], [2100 x i8]* %1, i64 0, i64 0
  call void @llvm.lifetime.start.p0i8(i64 2100, i8* nonnull %2) #5
  %3 = call i32 (i8*, ...) bitcast (i32 (...)* @gets to i32 (i8*, ...)*)(i8* nonnull %2) #5
  %4 = call i64 @strlen(i8* noundef nonnull %2) #6
  %5 = trunc i64 %4 to i32
  %6 = add nsw i32 %5, -1
  %7 = icmp sgt i32 %5, 0
  br i1 %7, label %8, label %37

8:                                                ; preds = %0, %33
  %9 = phi i32 [ %28, %33 ], [ -1, %0 ]
  %10 = phi i32 [ %34, %33 ], [ 0, %0 ]
  %11 = phi i8* [ %35, %33 ], [ %2, %0 ]
  %12 = load i8, i8* %11, align 1, !tbaa !5
  %13 = icmp eq i8 %12, 32
  br i1 %13, label %14, label %21

14:                                               ; preds = %8
  %15 = xor i32 %9, -1
  %16 = add i32 %10, %15
  %17 = icmp eq i32 %16, 0
  br i1 %17, label %21, label %18

18:                                               ; preds = %14
  %19 = call i32 (i8*, ...) @printf(i8* nonnull dereferenceable(1) getelementptr inbounds ([4 x i8], [4 x i8]* @.str, i64 0, i64 0), i32 %16)
  %20 = load i8, i8* %11, align 1, !tbaa !5
  br label %21

21:                                               ; preds = %18, %14, %8
  %22 = phi i8 [ %20, %18 ], [ 32, %14 ], [ %12, %8 ]
  %23 = phi i32 [ %10, %18 ], [ %9, %14 ], [ %9, %8 ]
  %24 = icmp eq i8 %22, 32
  %25 = add i32 %23, 1
  %26 = icmp eq i32 %10, %25
  %27 = select i1 %24, i1 %26, i1 false
  %28 = select i1 %27, i32 %10, i32 %23
  %29 = icmp eq i32 %10, %6
  br i1 %29, label %30, label %33

30:                                               ; preds = %21
  %31 = sub nsw i32 %6, %28
  %32 = call i32 (i8*, ...) @printf(i8* nonnull dereferenceable(1) getelementptr inbounds ([3 x i8], [3 x i8]* @.str.1, i64 0, i64 0), i32 %31)
  br label %33

33:                                               ; preds = %21, %30
  %34 = add nuw nsw i32 %10, 1
  %35 = getelementptr inbounds i8, i8* %11, i64 1
  %36 = icmp eq i32 %34, %5
  br i1 %36, label %37, label %8, !llvm.loop !8

37:                                               ; preds = %33, %0
  call void @llvm.lifetime.end.p0i8(i64 2100, i8* nonnull %2) #5
  ret i32 0
}

; Function Attrs: argmemonly mustprogress nofree nosync nounwind willreturn
declare void @llvm.lifetime.start.p0i8(i64 immarg, i8* nocapture) #1

declare i32 @gets(...) local_unnamed_addr #2

; Function Attrs: argmemonly mustprogress nofree nounwind readonly willreturn
declare i64 @strlen(i8* nocapture) local_unnamed_addr #3

; Function Attrs: nofree nounwind
declare noundef i32 @printf(i8* nocapture noundef readonly, ...) local_unnamed_addr #4

; Function Attrs: argmemonly mustprogress nofree nosync nounwind willreturn
declare void @llvm.lifetime.end.p0i8(i64 immarg, i8* nocapture) #1


!llvm.module.flags = !{!0, !1, !2, !3}
!llvm.ident = !{!4}

!0 = !{i32 1, !"wchar_size", i32 4}
!1 = !{i32 7, !"PIC Level", i32 2}
!2 = !{i32 7, !"PIE Level", i32 2}
!3 = !{i32 7, !"uwtable", i32 1}
!4 = !{!"clang version 13.0.0"}
!5 = !{!6, !6, i64 0}
!6 = !{!"omnipotent char", !7, i64 0}
!7 = !{!"Simple C/C++ TBAA"}
!8 = distinct !{!8, !9}
!9 = !{!"llvm.loop.mustprogress"}
